; Function Attrs: mustprogress uwtable
define internal fastcc void @_ZN5vcpkgL26format_command_usage_entryERNS_18HelpTableFormatterERKNS_15CommandMetadataE(ptr noundef nonnull align 8 dereferenceable(32) %0, ptr noundef nonnull align 8 dereferenceable(184) %1) unnamed_addr #0 personality ptr @__gxx_personality_v0 {
  %3 = alloca %"struct.vcpkg::LocalizedString", align 8
  %4 = getelementptr inbounds nuw i8, ptr %1, i64 16
  %5 = tail call noundef zeroext i1 @_ZNK5vcpkg15MetadataMessagecvbEv(ptr noundef nonnull align 8 dereferenceable(16) %4) #16
  br i1 %5, label %6, label %29

6:                                                ; preds = %2
  %.sroa.01.0.copyload = load ptr, ptr %1, align 8, !tbaa !24
  %.sroa.22.0..sroa_idx = getelementptr inbounds nuw i8, ptr %1, i64 8
  %.sroa.22.0.copyload = load i64, ptr %.sroa.22.0..sroa_idx, align 8, !tbaa !22
  call void @llvm.lifetime.start.p0(i64 32, ptr nonnull %3) #16
  call void @_ZNK5vcpkg15MetadataMessage9to_stringEv(ptr dead_on_unwind nonnull writable sret(%"struct.vcpkg::LocalizedString") align 8 %3, ptr noundef nonnull align 8 dereferenceable(16) %4)
  %7 = call { ptr, i64 } @_ZNK5vcpkg15LocalizedStringcvNS_10StringViewEEv(ptr noundef nonnull align 8 dereferenceable(32) %3) #16
  %8 = extractvalue { ptr, i64 } %7, 0
  %9 = extractvalue { ptr, i64 } %7, 1
  invoke void @_ZN5vcpkg18HelpTableFormatter6formatENS_10StringViewES1_(ptr noundef nonnull align 8 dereferenceable(32) %0, ptr %.sroa.01.0.copyload, i64 %.sroa.22.0.copyload, ptr %8, i64 %9)
          to label %10 unwind label %19

10:                                               ; preds = %6
  %11 = load ptr, ptr %3, align 8, !tbaa !23
  %12 = getelementptr inbounds nuw i8, ptr %3, i64 16
  %13 = icmp eq ptr %11, %12
  br i1 %13, label %_ZNKSt7__cxx1112basic_stringIcSt11char_traitsIcESaIcEE11_M_is_localEv.exit.thread.i.i.i, label %_ZNKSt7__cxx1112basic_stringIcSt11char_traitsIcESaIcEE11_M_is_localEv.exit.i.i.i

_ZNKSt7__cxx1112basic_stringIcSt11char_traitsIcESaIcEE11_M_is_localEv.exit.thread.i.i.i: ; preds = %10
  %14 = getelementptr inbounds nuw i8, ptr %3, i64 8
  %15 = load i64, ptr %14, align 8, !tbaa !18
  %16 = icmp ult i64 %15, 16
  call void @llvm.assume(i1 %16)
  br label %_ZN5vcpkg15LocalizedStringD2Ev.exit

_ZNKSt7__cxx1112basic_stringIcSt11char_traitsIcESaIcEE11_M_is_localEv.exit.i.i.i: ; preds = %10
  %17 = load i64, ptr %12, align 8, !tbaa !21
  %18 = add i64 %17, 1
  call void @_ZdlPvm(ptr noundef %11, i64 noundef %18) #15
  br label %_ZN5vcpkg15LocalizedStringD2Ev.exit

_ZN5vcpkg15LocalizedStringD2Ev.exit:              ; preds = %_ZNKSt7__cxx1112basic_stringIcSt11char_traitsIcESaIcEE11_M_is_localEv.exit.thread.i.i.i, %_ZNKSt7__cxx1112basic_stringIcSt11char_traitsIcESaIcEE11_M_is_localEv.exit.i.i.i
  call void @llvm.lifetime.end.p0(i64 32, ptr nonnull %3) #16
  br label %29

19:                                               ; preds = %6
  %20 = landingpad { ptr, i32 }
          cleanup
  %21 = load ptr, ptr %3, align 8, !tbaa !23
  %22 = getelementptr inbounds nuw i8, ptr %3, i64 16
  %23 = icmp eq ptr %21, %22
  br i1 %23, label %_ZNKSt7__cxx1112basic_stringIcSt11char_traitsIcESaIcEE11_M_is_localEv.exit.thread.i.i.i8, label %_ZNKSt7__cxx1112basic_stringIcSt11char_traitsIcESaIcEE11_M_is_localEv.exit.i.i.i7

_ZNKSt7__cxx1112basic_stringIcSt11char_traitsIcESaIcEE11_M_is_localEv.exit.thread.i.i.i8: ; preds = %19
  %24 = getelementptr inbounds nuw i8, ptr %3, i64 8
  %25 = load i64, ptr %24, align 8, !tbaa !18
  %26 = icmp ult i64 %25, 16
  call void @llvm.assume(i1 %26)
  br label %_ZN5vcpkg15LocalizedStringD2Ev.exit9

_ZNKSt7__cxx1112basic_stringIcSt11char_traitsIcESaIcEE11_M_is_localEv.exit.i.i.i7: ; preds = %19
  %27 = load i64, ptr %22, align 8, !tbaa !21
  %28 = add i64 %27, 1
  call void @_ZdlPvm(ptr noundef %21, i64 noundef %28) #15
  br label %_ZN5vcpkg15LocalizedStringD2Ev.exit9

_ZN5vcpkg15LocalizedStringD2Ev.exit9:             ; preds = %_ZNKSt7__cxx1112basic_stringIcSt11char_traitsIcESaIcEE11_M_is_localEv.exit.thread.i.i.i8, %_ZNKSt7__cxx1112basic_stringIcSt11char_traitsIcESaIcEE11_M_is_localEv.exit.i.i.i7
  call void @llvm.lifetime.end.p0(i64 32, ptr nonnull %3) #16
  resume { ptr, i32 } %20

29:                                               ; preds = %_ZN5vcpkg15LocalizedStringD2Ev.exit, %2
  ret void
}